(lp0
(F651.3555096872982
F774.6805793357672
F53.0
F422.8001892147164
tp1
a(F642.6079675821021
F751.4339625010305
F73.00684899377592
F396.2839890785395
tp2
a(F630.403838820799
F749.1521874759494
F58.309518948453004
F409.0195594345092
tp3
a(F618.7277268718447
F754.9264864872606
F33.24154027718932
F434.0414726728311
tp4
a(F607.4537019394976
F738.2099972230125
F47.75981574503821
F422.3837118071671
tp5
a(F596.7051198037436
F737.6455788520664
F41.23105625617661
F435.90021793984
tp6
a(F587.5797818169036
F713.5516799784021
F68.79680225126747
F410.85520563819074
tp7
a(F578.013840664737
F697.092533312472
F85.70297544426332
F399.1440842603082
tp8
a(F564.5644338780119
F703.401023598914
F74.2024258363566
F426.38597537911585
tp9
a(F552.7612504508614
F702.6357520081084
F76.96752561957543
F440.918359790109
tp10
a(F545.2568202232779
F670.2305573457539
F107.71258050942797
F404.6047453997543
tp11
a(F531.6615464748227
F677.3256233156989
F102.41581909060729
F432.3424568556736
tp12
a(F521.9061218265216
F660.623947492066
F118.20744477400736
F422.26295125194207
tp13
a(F509.7332635800807
F660.2863015389612
F122.56018929489298
F437.65283044897586
tp14
a(F499.7679461510112
F652.6392571704524
F131.91285001848757
F440.40890090914377
tp15
a(F488.8077331630505
F644.3019478474359
F142.30249470757707
F443.68119184838116
tp16
a(F480.83261120685233
F619.0589632660204
F162.34839081432253
F422.7528828996912
tp17
a(F469.945741548958
F610.6594795792496
F172.30786401090347
F426.728250763879
tp18
a(F459.0642656535139
F602.3437556744487
F182.3869512876401
F430.9477926617098
tp19
a(F448.1885763827543
F594.1153086733248
F192.566871501824
F435.4044097158411
tp20
a(F434.4951092935339
F594.1380311005179
F199.6121238802894
F452.24993090104505
tp21
a(F424.5774369888254
F586.9412236331675
F209.2008604188807
F456.607052069939
tp22
a(F413.80671816682724
F578.4133470105959
F220.05681084665386
F460.7168327725828
tp23
a(F400.0524965551396
F590.3388857258177
F225.28426487440262
F489.74483151943525
tp24
a(F391.3693907295255
F573.2608481311104
F237.49736840647307
F482.14728040299053
tp25
a(F379.3323081415555
F565.9549452032379
F249.09837414162303
F488.9713693049932
tp26
a(F368.40195439221003
F558.7074368576098
F259.9249891795708
F494.619045326805
tp27
a(F358.5875067539303
F551.4607873638886
F269.9481431682759
F499.06412413636787
tp28
a(F346.30189141845585
F554.5818244407221
F278.9587783167972
F515.9428262898904
tp29
a(F341.0527818388233
F517.4021646649732
F296.86360504447157
F490.02550954006466
tp30
a(F327.81854737034024
F520.5429857370091
F304.765483609939
F507.0157788471676
tp31
a(F313.9585959963511
F523.6258206009326
F314.3835237413055
F524.6046130182235
tp32
a(F302.49132218957953
F528.4174486142562
F322.69180342859653
F541.00369684504
tp33
a(F291.547594742265
F522.2508975578692
F333.63602922945836
F547.6422189714741
tp34
a(F280.60826787534256
F516.2450968290159
F344.58380693236296
F554.4195162510065
tp35
a(F269.6738771182704
F510.4057209710722
F355.53480842246654
F561.3305621467622
tp36
a(F260.5724467398654
F493.5787677767349
F367.8872109764078
F558.5069381842986
tp37
a(F252.29347989989753
F476.7661900764357
F380.60084077679073
F556.1906148075495
tp38
a(F242.55308697272852
F471.7054165472345
F390.4830342025118
F563.0346348138806
tp39
a(F234.38643305447522
F454.47222137332
F404.46013400581273
F562.1610089645136
tp40
a(F223.8972978845435
F449.17702523615344
F415.2890559598218
F570.0403494490544
tp41
a(F209.61870145576228
F455.72140612439966
F424.1238026803023
F586.982112163565
tp42
a(F194.32961688841976
F475.0852555068406
F431.26442004876776
F612.3561055464378
tp43
a(F192.77188591700815
F434.5768056396936
F447.82585901218346
F594.2735060559237
tp44
a(F178.98603297464302
F442.54039363655835
F455.83439975499874
F610.3933158218559
tp45
a(F172.01162751395617
F426.91685373149653
F469.40068172085137
F611.532501180436
tp46
a(F154.12008305214476
F446.8702272472401
F476.2268367070466
F635.465970764761
tp47
a(F152.50245899656832
F418.3790147701005
F491.30438630242253
F627.8287983200515
tp48
a(F129.52219886953742
F452.6035793053343
F497.09657009478553
F660.5755066606694
tp49
a(F134.97036711811967
F412.3602793674483
F511.09685970469434
F643.4974747425199
tp50
a(F676.503510707816
F708.1391106272835
F189.2353032602532
F281.298773548695
tp51
a(F662.4507528865824
F703.3896501939732
F174.92855684535903
F293.43653487594213
tp52
a(F659.128212110512
F682.794258909666
F200.12246250733574
F267.0468123756582
tp53
a(F644.8100495494778
F677.9749257900324
F187.04277585621958
F280.06427833624196
tp54
a(F630.6266724457506
F673.5517797467393
F174.6453549339346
F293.492759706266
tp55
a(F616.5873822906207
F669.532672839795
F163.08586695357755
F307.2783754187723
tp56
a(F609.4801063201324
F653.8287237495765
F177.89041570584965
F295.584167370311
tp57
a(F606.8648943545837
F632.5764775898642
F205.67936211491906
F271.64130760986995
tp58
a(F588.3961250722169
F634.2554690343632
F183.73078130786905
F299.2824752637548
tp59
a(F581.8590894709818
F618.515965840818
F199.6722314193939
F289.10897599348243
tp60
a(F563.6000354861593
F621.1674492437606
F180.22763384120648
F317.0567772497538
tp61
a(F557.8548198232224
F606.0825026347486
F196.3593644316461
F307.405269961333
tp62
a(F543.4740104181616
F603.0008291868262
F190.59118552545917
F323.1903463904824
tp63
a(F540.296215052447
F579.6636956028901
F219.0091322296858
F303.07754783223385
tp64
a(F530.904887903662
F570.9378249862239
F224.37691503361035
F307.0439707924583
tp65
a(F525.3360829031259
F554.9954954772155
F241.29857024027308
F300.0966510976089
tp66
a(F510.3253863957779
F551.8931055920159
F237.24459951703852
F316.7080674690811
tp67
a(F495.44525429153117
F549.301374474887
F234.3608329051593
F333.36166546260233
tp68
a(F495.81649831364024
F527.2001517450465
F260.5551764981844
F315.9905061864992
tp69
a(F470.33286085494814
F538.1570402772782
F240.75298544358697
F355.5235575879607
tp70
a(F459.98695633680745
F529.1597112403778
F249.04015740438328
F361.24783736376884
tp71
a(F449.67210275933286
F520.2393679836234
F257.53058070838887
F367.21247255505904
tp72
a(F439.39048692478536
F511.4000391083286
F266.20480837129895
F373.4059453195677
tp73
a(F435.4124481454337
F495.025251881154
F282.68179990936807
F368.021738488367
tp74
a(F424.9258758889602
F486.805916151396
F290.80061898145954
F375.598189559002
tp75
a(F409.6925676650725
F486.1872067424234
F292.3302926485724
F392.62195557558925
tp76
a(F410.5423242492788
F461.4293011935848
F316.21827904155066
F380.06446821559103
tp77
a(F394.93923583255184
F460.93491948430204
F317.855312996338
F397.0805963529319
tp78
a(F379.458825170795
F461.06940909151626
F320.3903868720159
F414.09781453178425
tp79
a(F368.5824195481928
F452.18690825807863
F330.82019285406386
F422.2759761104105
tp80
a(F365.47229717175554
F436.02752206712825
F345.94363702776786
F420.05951959216446
tp81
a(F362.2154055254967
F419.1443665373543
F362.03452874000845
F419.2183202103649
tp82
a(F352.7846368537043
F411.04865892008456
F371.4969717238621
F427.4681274668323
tp83
a(F344.2920272094607
F403.80812275138794
F380.1710141502111
F435.0735569992734
tp84
a(F341.5406271587613
F386.1450504667903
F397.0503746377782
F436.2499283667563
tp85
a(F325.0846043724618
F387.62094886628614
F400.3560914985558
F452.91941888154895
tp86
a(F303.0594001181947
F399.60605601016607
F398.42188694899784
F476.42523023030594
tp87
a(F293.7515957403466
F392.62195557558925
F408.49602201245483
F484.9267985995412
tp88
a(F284.56457966514387
F385.8250899047391
F418.6167698504206
F493.52710158612365
tp89
a(F275.5104353740526
F379.2255265669757
F428.78082979536293
F502.22106686199453
tp90
a(F274.5541840875859
F362.240251766697
F443.947068917005
F503.35275900704073
tp91
a(F257.8565492672234
F366.6606060105176
F449.22711405256916
F519.8711378793787
tp92
a(F257.1089263327899
F350.59520818174343
F463.8706716316521
F521.9894634951936
tp93
a(F249.68980756130196
F343.8735232610967
F474.4533696792552
F530.5779867276817
tp94
a(F251.92459189209774
F327.566787083184
F488.6153906704127
F532.024435529046
tp95
a(F234.91274976041638
F333.36166546260233
F494.03339968062886
F548.2335268843013
tp96
a(F217.90364843205356
F339.91175325369375
F499.97299927096066
F564.4909210961679
tp97
a(F229.40139493908924
F312.18103722039234
F519.8018853370965
F561.755284799351
tp98
a(F212.40762698170704
F319.4698733840172
F525.6348542476992
F577.8001384561966
tp99
a(F239.90831582085687
F279.7320146139873
F549.0036429751627
F567.9612662849465
tp100
a(F727.616657313451
F664.9060083951716
F329.2795165205391
F141.59802258506295
tp101
a(F712.0
F657.0616409439833
F315.5138665732459
F152.8397853963424
tp102
a(F696.4495674490723
F649.5690879344552
F302.08111493438315
F165.07574019219177
tp103
a(F686.9672481275945
F638.6814542477338
F303.0264014900352
F164.1097193952875
tp104
a(F677.5433565462804
F629.2892816503393
F302.32432915661946
F165.77394246382633
tp105
a(F672.7257985241832
F614.3565739861501
F316.07119451161634
F154.55743269089325
tp106
a(F670.090292423342
F601.5189107584233
F329.9696955782455
F144.10065926289164
tp107
a(F641.3049196755004
F600.3082541494828
F292.95904150580503
F184.88915598271305
tp108
a(F638.8239194018959
F586.680492261333
F308.5012155567624
F174.63103962354458
tp109
a(F634.9433045556115
F572.8114873149805
F322.4686031228467
F167.7647161950331
tp110
a(F613.2968286237913
F569.5305084014376
F300.83217912982644
F195.0717816599828
tp111
a(F622.5640529294958
F548.1788029466298
F340.3894827987492
F167.2423391369542
tp112
a(F593.4610349466931
F549.000910746057
F306.4718584144391
F206.15528128088303
tp113
a(F590.830771033466
F534.1245173178254
F323.3852192045889
F200.30227157973022
tp114
a(F587.6631688305811
F520.0173074042824
F338.52769458347126
F197.43353311937665
tp115
a(F572.3154724450493
F514.5143341054746
F330.39370454050726
F213.82469455140114
tp116
a(F555.8282108709489
F507.2563454507001
F324.6783023240081
F230.72277737579356
tp117
a(F561.3599558215744
F489.2126327068834
F352.40885346426813
F218.55205329623422
tp118
a(F545.0
F483.05382722839494
F345.9739874614853
F235.49309968659378
tp119
a(F535.8507254823866
F472.73036712273944
F351.4157082431006
F243.50770008359078
tp120
a(F526.7722468012148
F462.43810396635786
F357.1134273588715
F251.7478897627545
tp121
a(F525.4074609291345
F447.5991510268982
F373.97326107624326
F252.20031720836514
tp122
a(F523.9713732638454
F433.2435804486894
F390.00641020372984
F254.34228905158497
tp123
a(F500.0
F431.7707725170846
F375.62348169410285
F277.61844319137015
tp124
a(F491.2443383897671
F421.6266120633279
F382.227680839575
F286.56761854752534
tp125
a(F482.58056322234944
F411.5264268549469
F389.03084710598466
F295.6552045880471
tp126
a(F474.01371288181105
F401.47353586506796
F396.0227266205817
F304.8688242506931
tp127
a(F457.28000174947516
F397.12592461333975
F393.517471022571
F321.1744074486633
tp128
a(F457.94759525517765
F382.4264635194589
F409.8597321035576
F322.7692674341843
tp129
a(F457.05579528105756
F366.46691528704196
F426.81260524965757
F327.42021929013487
tp130
a(F459.6215834792792
F351.63901945034485
F443.8975106936285
F330.21810973960834
tp131
a(F451.9347298006649
F341.5625857730908
F451.3557355346224
F340.2425605358624
tp132
a(F416.62093082321246
F349.6927222576987
F431.8564576337837
F367.441151750862
tp133
a(F417.9485614283174
F333.65401241405743
F448.7426879627121
F371.1940193483726
tp134
a(F410.3656905736638
F324.13885913293393
F456.9168414492948
F381.0931644624448
tp135
a(F422.654705403832
F301.9023020780067
F482.5453346577915
F380.87924595598537
tp136
a(F395.68169025114116
F305.4079239312562
F473.60848809961163
F401.0635859810761
tp137
a(F378.65287533570904
F303.6445290137795
F474.0516849458506
F416.4828928059351
tp138
a(F381.70145401871343
F287.14108030722457
F490.71886044862794
F421.23627574082457
tp139
a(F386.0634662850138
F271.53084539329967
F506.62806870523866
F425.6818060476628
tp140
a(F379.16355310076943
F261.6734606336684
F516.0620117776544
F436.9221898690887
tp141
a(F373.6107600163571
F253.60007886434104
F524.0038167799926
F446.31939236380936
tp142
a(F367.72000217556837
F244.88364584022347
F532.8198569873311
F456.6858876733548
tp143
a(F373.3630940518894
F228.21481108815001
F549.400582453277
F463.04211471528157
tp144
a(F334.0808285430339
F246.1381725779242
F536.1911972421777
F486.35172457800536
tp145
a(F340.0
F229.14187744713973
F552.4970588157008
F492.1300641090727
tp146
a(F357.5276213105779
F203.7253052519495
F575.5979499616029
F494.92019558712695
tp147
a(F330.21810973960834
F214.46211786700232
F571.0210153750911
F512.9249457766701
tp148
a(F337.78395462188547
F197.43353311937665
F587.2656979596203
F519.4323825099856
tp149
a(F310.4834939252005
F211.0781845667619
F583.7096881155906
F537.6244042079935
tp150
a(F786.3090995276604
F650.4429260127287
F444.94606414710535
F35.4682957019364
tp151
a(F763.6137767222381
F641.9501538281613
F418.43159536535956
F51.86520991955976
tp152
a(F776.541048496472
F629.0961770667502
F457.0700165182573
F11.661903789690601
tp153
a(F752.5589677892358
F619.1066144049828
F431.010440708807
F36.345563690772494
tp154
a(F742.7200010771219
F607.1284872249037
F431.26094189017397
F39.81205847478876
tp155
a(F742.219644040765
F596.4830257433987
F444.7032718566393
F35.4682957019364
tp156
a(F718.0675455693566
F587.1328640095016
F419.5473751556551
F62.00806399170998
tp157
a(F716.8047153862759
F575.1912725346239
F433.55507147304826
F60.802960454241045
tp158
a(F724.8041114673674
F564.1072593044695
F460.5409862324959
F59.841457201508724
tp159
a(F707.3118124278711
F552.5214927946242
F449.32950047821254
F74.63243262818116
tp160
a(F690.614219372871
F542.2637734534735
F438.3617227815403
F89.55445270895244
tp161
a(F690.2477815973044
F530.5431179461289
F453.22952242765473
F95.80187889597991
tp162
a(F665.3006839016476
F521.402915220082
F430.2650346007679
F114.96521212958292
tp163
a(F673.4701181195792
F508.5666131393212
F458.1539042723526
F117.27744881263405
tp164
a(F673.8842630600599
F497.1217154782116
F473.5240226218729
F126.39620247459969
tp165
a(F639.8390422598484
F488.56524641034383
F439.25960433438445
F145.49914089093448
tp166
a(F640.8689413600881
F477.4358595664972
F454.7372867931549
F151.34397906755325
tp167
a(F631.9881327999759
F465.4728778350034
F458.7046980356752
F163.0245380303223
tp168
a(F615.8327695080865
F456.7450054461461
F450.1255380446659
F175.96022277776305
tp169
a(F616.7008999506974
F444.5424614139801
F466.3099827368057
F183.56470248934025
tp170
a(F618.0372157079216
F432.6661530556787
F482.5525878077953
F192.37983262286096
tp171
a(F591.8690733599789
F423.95872440604404
F463.38321074462766
F207.85812469085735
tp172
a(F602.8283337733886
F410.70183832069705
F491.58620810596386
F214.23818520515897
tp173
a(F577.0840493377026
F403.11288741492746
F472.826606696366
F228.31995094603536
tp174
a(F578.3640721898275
F389.76018267647606
F489.9489769353539
F237.7414562082095
tp175
a(F590.7622195096772
F377.1604433129222
F518.0588769628409
F246.20316813558676
tp176
a(F553.9981949429077
F369.39951272301374
F489.6417057400237
F261.6295090390226
tp177
a(F567.3887556164644
F356.808071657579
F517.069627806546
F267.9888057363591
tp178
a(F550.3635162326806
F346.97838549396704
F511.7978116404954
F280.3212442894758
tp179
a(F564.2171567756515
F334.18108863309425
F539.6461803811827
F289.1729586251107
tp180
a(F548.0328457309836
F323.81785003300854
F535.5641884965797
F300.8055850545332
tp181
a(F529.648940336899
F313.1932310890515
F530.9058296911045
F314.0700558792576
tp182
a(F513.2533487469907
F305.1245647272602
F526.4256832640292
F325.70692347569155
tp183
a(F529.1927815078358
F290.91063920042524
F554.6043634880634
F333.7259354620195
tp184
a(F511.4528326248668
F281.44271175498574
F550.2045074333724
F345.878591416121
tp185
a(F517.9420817041226
F269.9814808463721
F567.387874385768
F354.682957019364
tp186
a(F522.1877057151002
F257.2353008434107
F584.2473791126495
F366.1365865356807
tp187
a(F484.3139477652899
F251.81342299408902
F561.6377836292711
F379.0514476954283
tp188
a(F490.11223204486544
F238.72997298202839
F578.6613863046333
F388.5794642026261
tp189
a(F484.8886470108369
F227.86180022109892
F586.0375414595894
F399.5359808577946
tp190
a(F479.8603963654429
F217.00691233230336
F593.5259050791296
F410.4948233534742
tp191
a(F463.3270982793905
F208.83007446246816
F591.8487982584742
F422.7339588914049
tp192
a(F458.590231034199
F198.15398053029367
F599.6682416136442
F433.66461695646785
tp193
a(F454.0704791108975
F187.51533270642165
F607.5862078750636
F444.5986954546763
tp194
a(F461.82464204500826
F173.76996288196645
F624.5198155383061
F454.35008528666526
tp195
a(F482.6447969262696
F160.31219541881399
F649.8345943392056
F463.0874647407334
tp196
a(F466.7590384770283
F150.7647173578752
F648.6979266191622
F474.51027386137804
tp197
a(F438.60802546237113
F146.44111444536333
F639.4137940332536
F487.36946970445325
tp198
a(F447.6885077819175
F132.00378782444085
F656.2469047546053
F497.2333456235613
tp199
a(F469.5540437478949
F115.43396380615195
F682.4954212300622
F508.0797181545432
tp200
a.