(lp0
(I478
I31
tp1
a(I480
I31
tp2
a(I9
I32
tp3
a(I482
I32
tp4
a(I484
I32
tp5
a(I16
I33
tp6
a(I18
I33
tp7
a(I475
I34
tp8
a(I12
I35
tp9
a(I485
I35
tp10
a(I7
I36
tp11
a(I19
I36
tp12
a(I480
I36
tp13
a(I478
I37
tp14
a(I19
I38
tp15
a(I11
I39
tp16
a(I475
I39
tp17
a(I16
I40
tp18
a(I485
I40
tp19
a(I478
I41
tp20
a(I15
I42
tp21
a(I10
I653
tp22
a(I12
I654
tp23
a(I14
I654
tp24
a(I483
I654
tp25
a(I9
I655
tp26
a(I476
I657
tp27
a(I481
I657
tp28
a(I484
I657
tp29
a(I8
I659
tp30
a(I13
I659
tp31
a(I482
I660
tp32
a(I7
I661
tp33
a(I478
I661
tp34
a(I480
I661
tp35
a(I11
I662
tp36
a(I475
I662
tp37
a(I478
I663
tp38
a.