(lp0
(I628
I628
I758
I627
tp1
a(I644
I644
I703
I644
tp2
a(I686
I687
I653
I687
tp3
a(I750
I751
I628
I751
tp4
a(I621
I621
I737
I620
tp5
a(I638
I639
I689
I638
tp6
a(I682
I683
I640
I683
tp7
a(I728
I729
I620
I729
tp8
a(I609
I609
I750
I608
tp9
a(I631
I631
I674
I631
tp10
a(I663
I664
I638
I664
tp11
a(I726
I728
I609
I728
tp12
a(I600
I600
I727
I599
tp13
a(I621
I622
I665
I621
tp14
a(I659
I660
I625
I660
tp15
a(I731
I732
I597
I733
tp16
a(I590
I590
I719
I589
tp17
a(I612
I613
I657
I613
tp18
a(I655
I656
I612
I656
tp19
a(I716
I717
I588
I718
tp20
a(I579
I579
I718
I578
tp21
a(I600
I600
I654
I600
tp22
a(I716
I717
I577
I717
tp23
a(I652
I653
I599
I653
tp24
a(I571
I571
I696
I571
tp25
a(I587
I587
I651
I587
tp26
a(I637
I638
I593
I638
tp27
a(I693
I695
I570
I695
tp28
a(I560
I560
I695
I559
tp29
a(I587
I588
I625
I588
tp30
a(I618
I618
I591
I618
tp31
a(I678
I679
I561
I680
tp32
a(I548
I548
I702
I547
tp33
a(I573
I574
I621
I573
tp34
a(I620
I621
I573
I621
tp35
a(I684
I686
I548
I686
tp36
a(I539
I539
I686
I538
tp37
a(I561
I562
I619
I561
tp38
a(I606
I607
I569
I607
tp39
a(I684
I685
I537
I685
tp40
a(I530
I530
I671
I530
tp41
a(I559
I560
I598
I559
tp42
a(I609
I610
I552
I610
tp43
a(I654
I655
I533
I656
tp44
a(I519
I519
I671
I518
tp45
a(I539
I540
I609
I539
tp46
a(I594
I595
I546
I595
tp47
a(I660
I661
I519
I662
tp48
a(I513
I513
I649
I512
tp49
a(I540
I541
I581
I541
tp50
a(I592
I593
I533
I593
tp51
a(I646
I647
I511
I648
tp52
a(I499
I499
I655
I499
tp53
a(I527
I527
I578
I527
tp54
a(I571
I572
I531
I572
tp55
a(I645
I646
I499
I647
tp56
a(I489
I489
I657
I489
tp57
a(I513
I514
I576
I514
tp58
a(I562
I563
I522
I563
tp59
a(I638
I639
I490
I640
tp60
a(I483
I483
I625
I482
tp61
a(I509
I509
I562
I509
tp62
a(I548
I548
I517
I549
tp63
a(I630
I631
I480
I632
tp64
a(I471
I472
I626
I471
tp65
a(I503
I503
I546
I503
tp66
a(I545
I546
I503
I546
tp67
a(I607
I608
I474
I609
tp68
a(I462
I462
I618
I461
tp69
a(I486
I487
I551
I486
tp70
a(I543
I544
I490
I544
tp71
a(I600
I601
I464
I602
tp72
a(I453
I453
I603
I453
tp73
a(I481
I481
I536
I481
tp74
a(I522
I523
I491
I524
tp75
a(I592
I593
I454
I594
tp76
a(I443
I443
I604
I442
tp77
a(I471
I472
I528
I472
tp78
a(I533
I535
I468
I535
tp79
a(I585
I586
I444
I587
tp80
a(I430
I431
I605
I430
tp81
a(I462
I463
I520
I463
tp82
a(I524
I526
I457
I526
tp83
a(I585
I587
I432
I587
tp84
a(I424
I424
I581
I423
tp85
a(I448
I449
I519
I449
tp86
a(I516
I518
I448
I518
tp87
a(I577
I579
I422
I579
tp88
a(I411
I411
I591
I410
tp89
a(I435
I435
I518
I435
tp90
a(I509
I510
I440
I511
tp91
a(I571
I572
I413
I573
tp92
a(I404
I404
I567
I403
tp93
a(I434
I435
I496
I435
tp94
a(I581
I582
I400
I583
tp95
a(I493
I494
I434
I495
tp96
a(I392
I392
I568
I392
tp97
a(I425
I426
I488
I426
tp98
a(I485
I486
I425
I487
tp99
a(I565
I566
I391
I567
tp100
a(I381
I381
I580
I380
tp101
a(I416
I417
I480
I417
tp102
a(I485
I487
I412
I487
tp103
a(I559
I560
I381
I561
tp104
a(I375
I376
I547
I375
tp105
a(I408
I408
I473
I408
tp106
a(I463
I464
I413
I464
tp107
a(I552
I553
I371
I554
tp108
a(I362
I362
I558
I361
tp109
a(I403
I404
I457
I404
tp110
a(I462
I464
I399
I464
tp111
a(I545
I547
I362
I548
tp112
a(I353
I354
I543
I353
tp113
a(I389
I390
I458
I390
tp114
a(I462
I464
I385
I464
tp115
a(I548
I549
I351
I550
tp116
a(I341
I341
I555
I340
tp117
a(I375
I376
I457
I376
tp118
a(I455
I456
I376
I457
tp119
a(I514
I515
I347
I516
tp120
a(I332
I332
I539
I332
tp121
a(I361
I362
I459
I362
tp122
a(I439
I441
I372
I441
tp123
a(I517
I518
I335
I519
tp124
a(I324
I324
I524
I324
tp125
a(I352
I353
I452
I353
tp126
a(I424
I425
I369
I426
tp127
a(I520
I521
I323
I522
tp128
a(I317
I317
I510
I317
tp129
a(I360
I361
I420
I361
tp130
a(I416
I418
I361
I418
tp131
a(I523
I525
I311
I526
tp132
a(I303
I304
I522
I303
tp133
a(I345
I346
I421
I346
tp134
a(I410
I411
I353
I412
tp135
a(I518
I519
I301
I520
tp136
a(I295
I296
I507
I295
tp137
a(I337
I338
I414
I338
tp138
a(I394
I395
I351
I396
tp139
a(I512
I513
I291
I515
tp140
a(I283
I284
I511
I283
tp141
a(I316
I317
I425
I317
tp142
a(I395
I396
I336
I397
tp143
a(I506
I508
I281
I509
tp144
a(I271
I271
I515
I271
tp145
a(I320
I321
I400
I321
tp146
a(I405
I407
I314
I408
tp147
a(I491
I492
I274
I494
tp148
a(I268
I269
I481
I268
tp149
a(I318
I319
I385
I320
tp150
a(I400
I401
I307
I402
tp151
a(I475
I477
I267
I478
tp152
a(I256
I256
I486
I256
tp153
a(I304
I305
I388
I305
tp154
a(I393
I395
I298
I396
tp155
a(I470
I472
I258
I473
tp156
a(I245
I246
I480
I245
tp157
a(I288
I289
I390
I289
tp158
a(I386
I388
I290
I389
tp159
a(I455
I457
I252
I458
tp160
a(I236
I237
I476
I236
tp161
a(I281
I282
I385
I282
tp162
a(I371
I373
I289
I374
tp163
a(I449
I451
I242
I452
tp164
a(I230
I230
I460
I230
tp165
a(I272
I274
I379
I274
tp166
a(I455
I456
I228
I458
tp167
a(I374
I376
I274
I377
tp168
a(I220
I221
I456
I220
tp169
a(I264
I265
I373
I265
tp170
a(I359
I361
I273
I362
tp171
a(I471
I473
I213
I474
tp172
a(I210
I211
I451
I211
tp173
a(I249
I250
I378
I251
tp174
a(I353
I354
I266
I355
tp175
a(I435
I437
I215
I438
tp176
a(I197
I198
I458
I198
tp177
a(I265
I266
I342
I267
tp178
a(I338
I339
I268
I340
tp179
a(I441
I443
I201
I445
tp180
a(I184
I184
I476
I183
tp181
a(I249
I251
I347
I251
tp182
a(I342
I344
I253
I345
tp183
a(I427
I429
I195
I430
tp184
a(I176
I177
I461
I176
tp185
a(I226
I227
I363
I228
tp186
a(I348
I350
I236
I351
tp187
a(I444
I446
I177
I447
tp188
a(I174
I174
I435
I174
tp189
a(I235
I237
I337
I237
tp190
a(I322
I324
I246
I325
tp191
a(I418
I420
I178
I421
tp192
a(I159
I160
I443
I160
tp193
a(I220
I221
I343
I222
tp194
a(I327
I329
I232
I330
tp195
a(I448
I450
I155
I452
tp196
a(I144
I145
I462
I144
tp197
a(I231
I233
I317
I234
tp198
a(I291
I293
I255
I294
tp199
a(I411
I413
I162
I415
tp200
a.