(lp0
(I91
I172
tp1
a(I223
I172
tp2
a(I294
I172
tp3
a(I450
I173
tp4
a(I55
I181
tp5
a(I187
I182
tp6
a(I318
I182
tp7
a(I426
I182
tp8
a(I91
I190
tp9
a(I198
I191
tp10
a(I306
I192
tp11
a(I414
I193
tp12
a(I67
I200
tp13
a(I174
I201
tp14
a(I330
I202
tp15
a(I438
I203
tp16
a(I90
I210
tp17
a(I187
I212
tp18
a(I306
I212
tp19
a(I450
I213
tp20
a(I79
I221
tp21
a(I199
I222
tp22
a(I294
I222
tp23
a(I426
I222
tp24
a(I91
I231
tp25
a(I187
I231
tp26
a(I330
I232
tp27
a(I414
I232
tp28
a(I55
I240
tp29
a(I186
I241
tp30
a(I318
I241
tp31
a(I414
I242
tp32
a(I79
I250
tp33
a(I175
I251
tp34
a(I318
I252
tp35
a(I414
I252
tp36
a(I91
I260
tp37
a(I186
I261
tp38
a(I318
I262
tp39
a(I426
I262
tp40
a(I91
I271
tp41
a(I175
I271
tp42
a(I318
I271
tp43
a(I426
I271
tp44
a(I79
I281
tp45
a(I174
I281
tp46
a(I306
I282
tp47
a(I426
I282
tp48
a(I79
I290
tp49
a(I174
I291
tp50
a(I294
I291
tp51
a(I414
I292
tp52
a(I67
I300
tp53
a(I174
I300
tp54
a(I306
I301
tp55
a(I449
I301
tp56
a(I55
I310
tp57
a(I198
I310
tp58
a(I330
I311
tp59
a(I437
I312
tp60
a(I55
I320
tp61
a(I210
I320
tp62
a(I306
I321
tp63
a(I425
I322
tp64
a(I55
I330
tp65
a(I198
I331
tp66
a(I306
I331
tp67
a(I437
I332
tp68
a(I55
I340
tp69
a(I198
I340
tp70
a(I294
I341
tp71
a(I414
I342
tp72
a(I67
I350
tp73
a(I198
I350
tp74
a(I330
I351
tp75
a(I425
I351
tp76
a(I79
I360
tp77
a(I186
I360
tp78
a(I330
I361
tp79
a(I437
I361
tp80
a(I91
I370
tp81
a(I174
I370
tp82
a(I317
I370
tp83
a(I449
I371
tp84
a(I55
I380
tp85
a(I174
I380
tp86
a(I306
I381
tp87
a(I425
I381
tp88
a(I67
I390
tp89
a(I186
I390
tp90
a(I294
I390
tp91
a(I437
I391
tp92
a(I66
I399
tp93
a(I198
I400
tp94
a(I306
I401
tp95
a(I413
I401
tp96
a(I66
I409
tp97
a(I174
I410
tp98
a(I305
I410
tp99
a(I449
I411
tp100
a(I67
I419
tp101
a(I186
I419
tp102
a(I305
I420
tp103
a(I425
I420
tp104
a(I186
I429
tp105
a(I55
I430
tp106
a(I305
I430
tp107
a(I413
I430
tp108
a(I79
I440
tp109
a(I174
I440
tp110
a(I329
I440
tp111
a(I437
I440
tp112
a(I79
I449
tp113
a(I174
I449
tp114
a(I317
I450
tp115
a(I413
I450
tp116
a(I78
I459
tp117
a(I174
I459
tp118
a(I305
I460
tp119
a(I437
I460
tp120
a(I90
I469
tp121
a(I174
I470
tp122
a(I305
I470
tp123
a(I425
I471
tp124
a(I90
I479
tp125
a(I210
I480
tp126
a(I305
I480
tp127
a(I413
I480
tp128
a(I90
I489
tp129
a(I186
I489
tp130
a(I317
I490
tp131
a(I425
I490
tp132
a(I91
I499
tp133
a(I198
I499
tp134
a(I293
I499
tp135
a(I425
I500
tp136
a(I67
I509
tp137
a(I210
I509
tp138
a(I305
I510
tp139
a(I413
I510
tp140
a(I66
I519
tp141
a(I198
I519
tp142
a(I317
I519
tp143
a(I449
I520
tp144
a(I66
I528
tp145
a(I198
I529
tp146
a(I305
I529
tp147
a(I437
I529
tp148
a(I78
I539
tp149
a(I174
I539
tp150
a(I293
I539
tp151
a(I413
I540
tp152
a(I67
I548
tp153
a(I186
I549
tp154
a(I437
I549
tp155
a(I330
I550
tp156
a(I91
I559
tp157
a(I174
I559
tp158
a(I293
I559
tp159
a(I425
I559
tp160
a(I54
I568
tp161
a(I198
I569
tp162
a(I317
I569
tp163
a(I437
I569
tp164
a(I66
I578
tp165
a(I186
I578
tp166
a(I305
I578
tp167
a(I449
I579
tp168
a(I90
I588
tp169
a(I210
I588
tp170
a(I293
I589
tp171
a(I425
I589
tp172
a(I78
I598
tp173
a(I186
I598
tp174
a(I329
I599
tp175
a(I413
I599
tp176
a(I54
I608
tp177
a(I174
I608
tp178
a(I317
I609
tp179
a(I437
I609
tp180
a(I67
I618
tp181
a(I186
I618
tp182
a(I305
I619
tp183
a(I425
I619
tp184
a(I55
I628
tp185
a(I198
I628
tp186
a(I305
I628
tp187
a(I425
I629
tp188
a(I78
I638
tp189
a(I210
I638
tp190
a(I305
I638
tp191
a(I449
I640
tp192
a(I90
I647
tp193
a(I186
I648
tp194
a(I317
I649
tp195
a(I413
I649
tp196
a(I66
I658
tp197
a(I198
I658
tp198
a(I329
I658
tp199
a(I437
I658
tp200
a.