(lp0
(I422
I53
I774
I651
tp1
a(I396
I73
I751
I642
tp2
a(I409
I58
I749
I630
tp3
a(I434
I33
I754
I618
tp4
a(I422
I47
I738
I607
tp5
a(I435
I41
I737
I596
tp6
a(I410
I68
I713
I587
tp7
a(I399
I85
I697
I578
tp8
a(I426
I74
I703
I564
tp9
a(I440
I76
I702
I552
tp10
a(I404
I107
I670
I545
tp11
a(I432
I102
I677
I531
tp12
a(I422
I118
I660
I521
tp13
a(I437
I122
I660
I509
tp14
a(I440
I131
I652
I499
tp15
a(I443
I142
I644
I488
tp16
a(I422
I162
I619
I480
tp17
a(I426
I172
I610
I469
tp18
a(I430
I182
I602
I459
tp19
a(I435
I192
I594
I448
tp20
a(I452
I199
I594
I434
tp21
a(I456
I209
I586
I424
tp22
a(I460
I220
I578
I413
tp23
a(I489
I225
I590
I400
tp24
a(I482
I237
I573
I391
tp25
a(I488
I249
I565
I379
tp26
a(I494
I259
I558
I368
tp27
a(I499
I269
I551
I358
tp28
a(I515
I278
I554
I346
tp29
a(I490
I296
I517
I341
tp30
a(I507
I304
I520
I327
tp31
a(I524
I314
I523
I313
tp32
a(I541
I322
I528
I302
tp33
a(I547
I333
I522
I291
tp34
a(I554
I344
I516
I280
tp35
a(I561
I355
I510
I269
tp36
a(I558
I367
I493
I260
tp37
a(I556
I380
I476
I252
tp38
a(I563
I390
I471
I242
tp39
a(I562
I404
I454
I234
tp40
a(I570
I415
I449
I223
tp41
a(I586
I424
I455
I209
tp42
a(I612
I431
I475
I194
tp43
a(I594
I447
I434
I192
tp44
a(I610
I455
I442
I178
tp45
a(I611
I469
I426
I172
tp46
a(I635
I476
I446
I154
tp47
a(I627
I491
I418
I152
tp48
a(I660
I497
I452
I129
tp49
a(I643
I511
I412
I134
tp50
a(I281
I189
I708
I676
tp51
a(I293
I174
I703
I662
tp52
a(I267
I200
I682
I659
tp53
a(I280
I187
I677
I644
tp54
a(I293
I174
I673
I630
tp55
a(I307
I163
I669
I616
tp56
a(I295
I177
I653
I609
tp57
a(I271
I205
I632
I606
tp58
a(I299
I183
I634
I588
tp59
a(I289
I199
I618
I581
tp60
a(I317
I180
I621
I563
tp61
a(I307
I196
I606
I557
tp62
a(I323
I190
I603
I543
tp63
a(I303
I219
I579
I540
tp64
a(I307
I224
I570
I530
tp65
a(I300
I241
I554
I525
tp66
a(I316
I237
I551
I510
tp67
a(I333
I234
I549
I495
tp68
a(I315
I260
I527
I495
tp69
a(I355
I240
I538
I470
tp70
a(I361
I249
I529
I459
tp71
a(I367
I257
I520
I449
tp72
a(I373
I266
I511
I439
tp73
a(I368
I282
I495
I435
tp74
a(I375
I290
I486
I424
tp75
a(I392
I292
I486
I409
tp76
a(I380
I316
I461
I410
tp77
a(I397
I317
I460
I394
tp78
a(I414
I320
I461
I379
tp79
a(I422
I330
I452
I368
tp80
a(I420
I345
I436
I365
tp81
a(I419
I362
I419
I362
tp82
a(I427
I371
I411
I352
tp83
a(I435
I380
I403
I344
tp84
a(I436
I397
I386
I341
tp85
a(I452
I400
I387
I325
tp86
a(I476
I398
I399
I303
tp87
a(I484
I408
I392
I293
tp88
a(I493
I418
I385
I284
tp89
a(I502
I428
I379
I275
tp90
a(I503
I443
I362
I274
tp91
a(I519
I449
I366
I257
tp92
a(I521
I463
I350
I257
tp93
a(I530
I474
I343
I249
tp94
a(I532
I488
I327
I251
tp95
a(I548
I494
I333
I234
tp96
a(I564
I499
I339
I217
tp97
a(I561
I519
I312
I229
tp98
a(I577
I525
I319
I212
tp99
a(I567
I549
I279
I239
tp100
a(I141
I329
I664
I727
tp101
a(I152
I315
I657
I712
tp102
a(I165
I302
I649
I696
tp103
a(I164
I303
I638
I686
tp104
a(I165
I302
I629
I677
tp105
a(I154
I316
I614
I672
tp106
a(I144
I329
I601
I670
tp107
a(I184
I292
I600
I641
tp108
a(I174
I308
I586
I638
tp109
a(I167
I322
I572
I634
tp110
a(I195
I300
I569
I613
tp111
a(I167
I340
I548
I622
tp112
a(I206
I306
I549
I593
tp113
a(I200
I323
I534
I590
tp114
a(I197
I338
I520
I587
tp115
a(I213
I330
I514
I572
tp116
a(I230
I324
I507
I555
tp117
a(I218
I352
I489
I561
tp118
a(I235
I345
I483
I545
tp119
a(I243
I351
I472
I535
tp120
a(I251
I357
I462
I526
tp121
a(I252
I373
I447
I525
tp122
a(I254
I390
I433
I523
tp123
a(I277
I375
I431
I500
tp124
a(I286
I382
I421
I491
tp125
a(I295
I389
I411
I482
tp126
a(I304
I396
I401
I474
tp127
a(I321
I393
I397
I457
tp128
a(I322
I409
I382
I457
tp129
a(I327
I426
I366
I457
tp130
a(I330
I443
I351
I459
tp131
a(I340
I451
I341
I451
tp132
a(I367
I431
I349
I416
tp133
a(I371
I448
I333
I417
tp134
a(I381
I456
I324
I410
tp135
a(I380
I482
I301
I422
tp136
a(I401
I473
I305
I395
tp137
a(I416
I474
I303
I378
tp138
a(I421
I490
I287
I381
tp139
a(I425
I506
I271
I386
tp140
a(I436
I516
I261
I379
tp141
a(I446
I524
I253
I373
tp142
a(I456
I532
I244
I367
tp143
a(I463
I549
I228
I373
tp144
a(I486
I536
I246
I334
tp145
a(I492
I552
I229
I340
tp146
a(I494
I575
I203
I357
tp147
a(I512
I571
I214
I330
tp148
a(I519
I587
I197
I337
tp149
a(I537
I583
I211
I310
tp150
a(I35
I444
I650
I786
tp151
a(I51
I418
I641
I763
tp152
a(I11
I457
I629
I776
tp153
a(I36
I431
I619
I752
tp154
a(I39
I431
I607
I742
tp155
a(I35
I444
I596
I742
tp156
a(I62
I419
I587
I718
tp157
a(I60
I433
I575
I716
tp158
a(I59
I460
I564
I724
tp159
a(I74
I449
I552
I707
tp160
a(I89
I438
I542
I690
tp161
a(I95
I453
I530
I690
tp162
a(I114
I430
I521
I665
tp163
a(I117
I458
I508
I673
tp164
a(I126
I473
I497
I673
tp165
a(I145
I439
I488
I639
tp166
a(I151
I454
I477
I640
tp167
a(I163
I458
I465
I631
tp168
a(I175
I450
I456
I615
tp169
a(I183
I466
I444
I616
tp170
a(I192
I482
I432
I618
tp171
a(I207
I463
I423
I591
tp172
a(I214
I491
I410
I602
tp173
a(I228
I472
I403
I577
tp174
a(I237
I489
I389
I578
tp175
a(I246
I518
I377
I590
tp176
a(I261
I489
I369
I553
tp177
a(I267
I517
I356
I567
tp178
a(I280
I511
I346
I550
tp179
a(I289
I539
I334
I564
tp180
a(I300
I535
I323
I548
tp181
a(I314
I530
I313
I529
tp182
a(I325
I526
I305
I513
tp183
a(I333
I554
I290
I529
tp184
a(I345
I550
I281
I511
tp185
a(I354
I567
I269
I517
tp186
a(I366
I584
I257
I522
tp187
a(I379
I561
I251
I484
tp188
a(I388
I578
I238
I490
tp189
a(I399
I586
I227
I484
tp190
a(I410
I593
I217
I479
tp191
a(I422
I591
I208
I463
tp192
a(I433
I599
I198
I458
tp193
a(I444
I607
I187
I454
tp194
a(I454
I624
I173
I461
tp195
a(I463
I649
I160
I482
tp196
a(I474
I648
I150
I466
tp197
a(I487
I639
I146
I438
tp198
a(I497
I656
I132
I447
tp199
a(I508
I682
I115
I469
tp200
a.